((lp0
(lp1
F94.514098486049392
aS'41.666667%'
p2
aF18.902819697209878
aF7.6179111003875732
aS'Fri 23 Oct, 16:10:27'
p3
aS'test'
p4
aI1
aS'Completed'
p5
aa(lp6
F144.01578771095026
aS'91.666667%'
p7
aF28.803157542190053
aF4.9994518756866455
aS'Thu 02 Sep, 20:36:58'
p8
aS't'
p9
aI1
aS'Completed'
p10
aaI1
g9
g9
I1
tp11
.